target datalayout = "e-m:e-p270:32:32-p271:32:32-p272:64:64-i64:64-i128:128-f80:128-n8:16:32:64-S128"
target triple = "x86_64-pc-linux-gnu"

%struct.conf_value_st = type { ptr, ptr, ptr }

; Function Attrs: nounwind uwtable
define internal i32 @conf_value_hash(ptr noundef %0) #0 {
  %2 = alloca ptr, align 8
  store ptr %0, ptr %2, align 8, !tbaa !15
  %3 = load ptr, ptr %2, align 8, !tbaa !15
  %4 = getelementptr inbounds nuw %struct.conf_value_st, ptr %3, i32 0, i32 0
  %5 = load ptr, ptr %4, align 8, !tbaa !17
  %6 = call i32 @lh_strhash(ptr noundef %5)
  %7 = shl i32 %6, 2
  %8 = load ptr, ptr %2, align 8, !tbaa !15
  %9 = getelementptr inbounds nuw %struct.conf_value_st, ptr %8, i32 0, i32 1
  %10 = load ptr, ptr %9, align 8, !tbaa !20
  %11 = call i32 @lh_strhash(ptr noundef %10)
  %12 = xor i32 %7, %11
  ret i32 %12
}