; Function Attrs: nounwind uwtable
define internal i32 @conf_value_hash(ptr noundef readonly captures(none) %0) #0 {
  %2 = load ptr, ptr %0, align 8, !tbaa !12
  %3 = tail call i32 @lh_strhash(ptr noundef %2) #12
  %4 = shl i32 %3, 2
  %5 = getelementptr inbounds nuw i8, ptr %0, i64 8
  %6 = load ptr, ptr %5, align 8, !tbaa !15
  %7 = tail call i32 @lh_strhash(ptr noundef %6) #12
  %8 = xor i32 %7, %4
  ret i32 %8
}